; Function Attrs: nounwind uwtable
define internal i32 @drbg_ctr_uninstantiate(ptr noundef %0) #0 {
  %2 = getelementptr inbounds nuw i8, ptr %0, i64 240
  %3 = load ptr, ptr %2, align 8, !tbaa !3
  %4 = getelementptr inbounds nuw i8, ptr %3, i64 52
  tail call void @OPENSSL_cleanse(ptr noundef nonnull %4, i64 noundef 32) #7
  %5 = getelementptr inbounds nuw i8, ptr %3, i64 84
  tail call void @OPENSSL_cleanse(ptr noundef nonnull %5, i64 noundef 16) #7
  %6 = getelementptr inbounds nuw i8, ptr %3, i64 100
  tail call void @OPENSSL_cleanse(ptr noundef nonnull %6, i64 noundef 16) #7
  %7 = getelementptr inbounds nuw i8, ptr %3, i64 128
  tail call void @OPENSSL_cleanse(ptr noundef nonnull %7, i64 noundef 48) #7
  %8 = getelementptr inbounds nuw i8, ptr %3, i64 120
  store i64 0, ptr %8, align 8, !tbaa !21
  %9 = tail call i32 @ossl_prov_drbg_uninstantiate(ptr noundef %0) #7
  ret i32 %9
}